; Function Attrs: mustprogress uwtable
define dso_local void @_ZN4Luau7CodeGen3X6418AssemblyBuilderX644callENS1_10OperandX64E(ptr noundef nonnull align 8 dereferenceable(252) %0, i64 %1) local_unnamed_addr #0 align 2 {
  %3 = getelementptr inbounds nuw i8, ptr %0, i64 80
  %4 = load i8, ptr %3, align 8, !tbaa !14, !range !61, !noundef !62
  %5 = trunc nuw i8 %4 to i1
  br i1 %5, label %6, label %7

6:                                                ; preds = %2
  tail call void @_ZN4Luau7CodeGen3X6418AssemblyBuilderX643logEPKcNS1_10OperandX64E(ptr noundef nonnull align 8 dereferenceable(252) %0, ptr noundef nonnull @.str.31, i64 %1)
  br label %7

7:                                                ; preds = %6, %2
  %.sroa.0.0.extract.trunc.i = trunc i64 %1 to i8
  %.sroa.4.0.extract.shift.i = lshr i64 %1, 16
  %.sroa.4.0.extract.trunc.i = trunc i64 %.sroa.4.0.extract.shift.i to i8
  switch i8 %.sroa.0.0.extract.trunc.i, label %_ZN4Luau7CodeGen3X6418AssemblyBuilderX6411placeRexNoWENS1_10OperandX64E.exit [
    i8 0, label %8
    i8 1, label %11
  ]

8:                                                ; preds = %7
  %9 = lshr i8 %.sroa.4.0.extract.trunc.i, 6
  %10 = and i8 %9, 1
  br label %18

11:                                               ; preds = %7
  %12 = lshr i8 %.sroa.4.0.extract.trunc.i, 6
  %13 = and i8 %12, 1
  %14 = lshr i64 %1, 13
  %15 = trunc i64 %14 to i8
  %16 = and i8 %15, 2
  %17 = or disjoint i8 %13, %16
  br label %18

18:                                               ; preds = %11, %8
  %.0.i = phi i8 [ %10, %8 ], [ %17, %11 ]
  %.not.i = icmp eq i8 %.0.i, 0
  br i1 %.not.i, label %_ZN4Luau7CodeGen3X6418AssemblyBuilderX6411placeRexNoWENS1_10OperandX64E.exit, label %19

19:                                               ; preds = %18
  %20 = or i8 %.0.i, 64
  %21 = getelementptr inbounds nuw i8, ptr %0, i64 232
  %22 = load ptr, ptr %21, align 8, !tbaa !51
  %23 = getelementptr inbounds nuw i8, ptr %22, i64 1
  store ptr %23, ptr %21, align 8, !tbaa !51
  store i8 %20, ptr %22, align 1, !tbaa !13
  br label %_ZN4Luau7CodeGen3X6418AssemblyBuilderX6411placeRexNoWENS1_10OperandX64E.exit

_ZN4Luau7CodeGen3X6418AssemblyBuilderX6411placeRexNoWENS1_10OperandX64E.exit: ; preds = %7, %18, %19
  %24 = getelementptr inbounds nuw i8, ptr %0, i64 232
  %25 = load ptr, ptr %24, align 8, !tbaa !51
  %26 = getelementptr inbounds nuw i8, ptr %25, i64 1
  store ptr %26, ptr %24, align 8, !tbaa !51
  store i8 -1, ptr %25, align 1, !tbaa !13
  tail call void @_ZN4Luau7CodeGen3X6418AssemblyBuilderX6414placeModRegMemENS1_10OperandX64Ehi(ptr noundef nonnull align 8 dereferenceable(252) %0, i64 %1, i8 noundef zeroext 2, i32 noundef 0)
  %27 = getelementptr inbounds nuw i8, ptr %0, i64 248
  %28 = load i32, ptr %27, align 8, !tbaa !63
  %29 = add i32 %28, 1
  store i32 %29, ptr %27, align 8, !tbaa !63
  %30 = getelementptr inbounds nuw i8, ptr %0, i64 240
  %31 = load ptr, ptr %30, align 8, !tbaa !52
  %32 = load ptr, ptr %24, align 8, !tbaa !51
  %33 = ptrtoint ptr %31 to i64
  %34 = ptrtoint ptr %32 to i64
  %35 = sub i64 %33, %34
  %36 = and i64 %35, 4294967280
  %37 = icmp eq i64 %36, 0
  br i1 %37, label %38, label %_ZN4Luau7CodeGen3X6418AssemblyBuilderX646commitEv.exit

38:                                               ; preds = %_ZN4Luau7CodeGen3X6418AssemblyBuilderX6411placeRexNoWENS1_10OperandX64E.exit
  tail call void @_ZN4Luau7CodeGen3X6418AssemblyBuilderX646extendEv(ptr noundef nonnull align 8 dereferenceable(252) %0)
  br label %_ZN4Luau7CodeGen3X6418AssemblyBuilderX646commitEv.exit

_ZN4Luau7CodeGen3X6418AssemblyBuilderX646commitEv.exit: ; preds = %_ZN4Luau7CodeGen3X6418AssemblyBuilderX6411placeRexNoWENS1_10OperandX64E.exit, %38
  ret void
}